; Function Attrs: nounwind uwtable
define dso_local ptr @lookupKeyReadOrReply(ptr noundef %0, ptr noundef %1, ptr noundef %2) local_unnamed_addr #0 {
  %4 = getelementptr inbounds nuw i8, ptr %0, i64 32
  %5 = load ptr, ptr %4, align 8, !tbaa !74
  %6 = tail call ptr @lookupKey(ptr noundef %5, ptr noundef %1, i32 noundef 0, ptr noundef null)
  %.not = icmp eq ptr %6, null
  br i1 %.not, label %7, label %8

7:                                                ; preds = %3
  tail call void @addReplyOrErrorObject(ptr noundef nonnull %0, ptr noundef %2) #20
  br label %8

8:                                                ; preds = %7, %3
  ret ptr %6
}